; Function Attrs: nounwind uwtable
define internal range(i32 -1, 1) i32 @be_openssl_bio_set_fd(ptr noundef readonly captures(none) %0, i32 noundef %1) #0 {
  %3 = getelementptr inbounds nuw i8, ptr %0, i64 520
  %4 = load ptr, ptr %3, align 8
  %.not = icmp eq ptr %4, null
  br i1 %.not, label %5, label %9

5:                                                ; preds = %2
  %6 = tail call ptr @BIO_new_socket(i32 noundef %1, i32 noundef 0) #5
  %7 = getelementptr inbounds nuw i8, ptr %0, i64 528
  %8 = load ptr, ptr %7, align 8
  tail call void @SSL_set_bio(ptr noundef %8, ptr noundef %6, ptr noundef %6) #5
  br label %13

9:                                                ; preds = %2
  %10 = tail call fastcc ptr @BIO_new_bufferevent(ptr noundef %4)
  %.not13 = icmp eq ptr %10, null
  br i1 %.not13, label %13, label %.thread

.thread:                                          ; preds = %9
  %11 = getelementptr inbounds nuw i8, ptr %0, i64 528
  %12 = load ptr, ptr %11, align 8
  tail call void @SSL_set_bio(ptr noundef %12, ptr noundef nonnull %10, ptr noundef nonnull %10) #5
  br label %13

13:                                               ; preds = %5, %.thread, %9
  %.1 = phi i32 [ -1, %9 ], [ 0, %.thread ], [ 0, %5 ]
  ret i32 %.1
}